target datalayout = "e-m:e-p270:32:32-p271:32:32-p272:64:64-i64:64-i128:128-f80:128-n8:16:32:64-S128"
target triple = "x86_64-pc-linux-gnu"

%struct._value_string_ext = type { ptr, i32, i32, ptr, ptr }

@hf_llcgprs_xid_xl = internal global i32 0, align 4
@hf_llcgprs_xid_type = internal global i32 0, align 4
@hf_llcgprs_xid_len1 = internal global i32 0, align 4
@hf_llcgprs_xid_len2 = internal global i32 0, align 4
@hf_llcgprs_xid_spare = internal global i32 0, align 4
@hf_llcgprs_xid_byte = internal global i32 0, align 4
@ett_llcgprs_ui = internal global i32 0, align 4
@sndcp_xid_handle = internal global ptr null, align 8
@.str.207 = private unnamed_addr constant [31 x i8] c"Information Field: Length = %u\00", align 1
@.str.232 = private unnamed_addr constant [34 x i8] c"XID parameter Type: L3 parameters\00", align 1
@.str.233 = private unnamed_addr constant [35 x i8] c"XID Parameter Type: %s - Value: %u\00", align 1
@xid_param_type_str_ext = internal global %struct._value_string_ext { ptr @_try_val_to_str_ext_init, i32 0, i32 13, ptr @xid_param_type_str, ptr @.str.236 }, align 8
@.str.234 = private unnamed_addr constant [17 x i8] c"Reserved Type:%X\00", align 1
@.str.235 = private unnamed_addr constant [23 x i8] c"XID Parameter Type: %s\00", align 1

; Function Attrs: null_pointer_is_valid sspstrong uwtable
define internal void @llc_gprs_dissect_xid(ptr noundef %0, ptr noundef %1, ptr noundef %2) #0 {
  %4 = alloca ptr, align 8
  %5 = alloca ptr, align 8
  %6 = alloca ptr, align 8
  %7 = alloca i8, align 1
  %8 = alloca i8, align 1
  %9 = alloca i8, align 1
  %10 = alloca i8, align 1
  %11 = alloca i32, align 4
  %12 = alloca i32, align 4
  %13 = alloca i32, align 4
  %14 = alloca ptr, align 8
  %15 = alloca ptr, align 8
  %16 = alloca i32, align 4
  %17 = alloca i8, align 1
  %18 = alloca i8, align 1
  %19 = alloca ptr, align 8
  %20 = alloca i8, align 1
  %21 = alloca i32, align 4
  %22 = alloca i8, align 1
  store ptr %0, ptr %4, align 8
  store ptr %1, ptr %5, align 8
  store ptr %2, ptr %6, align 8
  call void @llvm.lifetime.start.p0(i64 1, ptr %7) #3
  store i8 0, ptr %7, align 1
  call void @llvm.lifetime.start.p0(i64 1, ptr %8) #3
  store i8 0, ptr %8, align 1
  call void @llvm.lifetime.start.p0(i64 1, ptr %9) #3
  store i8 0, ptr %9, align 1
  call void @llvm.lifetime.start.p0(i64 1, ptr %10) #3
  store i8 0, ptr %10, align 1
  call void @llvm.lifetime.start.p0(i64 4, ptr %11) #3
  store i32 0, ptr %11, align 4
  call void @llvm.lifetime.start.p0(i64 4, ptr %12) #3
  store i32 0, ptr %12, align 4
  call void @llvm.lifetime.start.p0(i64 4, ptr %13) #3
  store i32 0, ptr %13, align 4
  call void @llvm.lifetime.start.p0(i64 8, ptr %14) #3
  store ptr null, ptr %14, align 8
  call void @llvm.lifetime.start.p0(i64 8, ptr %15) #3
  store ptr null, ptr %15, align 8
  call void @llvm.lifetime.start.p0(i64 4, ptr %16) #3
  %23 = load ptr, ptr %4, align 8
  %24 = call i32 @tvb_reported_length(ptr noundef %23)
  store i32 %24, ptr %16, align 4
  %25 = load ptr, ptr %6, align 8
  %26 = load ptr, ptr %4, align 8
  %27 = load i32, ptr %16, align 4
  %28 = load i32, ptr @ett_llcgprs_ui, align 4
  %29 = load i32, ptr %16, align 4
  %30 = call ptr (ptr, ptr, i32, i32, i32, ptr, ptr, ...) @proto_tree_add_subtree_format(ptr noundef %25, ptr noundef %26, i32 noundef 0, i32 noundef %27, i32 noundef %28, ptr noundef null, ptr noundef @.str.207, i32 noundef %29)
  store ptr %30, ptr %15, align 8
  br label %31

31:                                               ; preds = %295, %3
  %32 = load i32, ptr %12, align 4
  %33 = load i32, ptr %16, align 4
  %34 = icmp ult i32 %32, %33
  br i1 %34, label %35, label %296

35:                                               ; preds = %31
  %36 = load ptr, ptr %4, align 8
  %37 = load i32, ptr %12, align 4
  %38 = call zeroext i8 @tvb_get_uint8(ptr noundef %36, i32 noundef %37)
  store i8 %38, ptr %8, align 1
  %39 = load i8, ptr %8, align 1
  %40 = zext i8 %39 to i32
  %41 = and i32 %40, 128
  %42 = icmp ne i32 %41, 0
  br i1 %42, label %43, label %81

43:                                               ; preds = %35
  call void @llvm.lifetime.start.p0(i64 1, ptr %17) #3
  store i8 0, ptr %17, align 1
  call void @llvm.lifetime.start.p0(i64 1, ptr %18) #3
  store i8 0, ptr %18, align 1
  %44 = load ptr, ptr %4, align 8
  %45 = load i32, ptr %12, align 4
  %46 = add i32 %45, 1
  %47 = call zeroext i8 @tvb_get_uint8(ptr noundef %44, i32 noundef %46)
  store i8 %47, ptr %9, align 1
  %48 = load i8, ptr %8, align 1
  %49 = zext i8 %48 to i32
  %50 = and i32 %49, 3
  %51 = trunc i32 %50 to i8
  store i8 %51, ptr %17, align 1
  %52 = load i8, ptr %9, align 1
  %53 = zext i8 %52 to i32
  %54 = and i32 %53, 252
  %55 = trunc i32 %54 to i8
  store i8 %55, ptr %18, align 1
  %56 = load i8, ptr %18, align 1
  %57 = zext i8 %56 to i32
  %58 = ashr i32 %57, 2
  %59 = trunc i32 %58 to i8
  store i8 %59, ptr %18, align 1
  %60 = load i8, ptr %18, align 1
  %61 = zext i8 %60 to i32
  %62 = and i32 %61, 63
  %63 = trunc i32 %62 to i8
  store i8 %63, ptr %18, align 1
  %64 = load i8, ptr %17, align 1
  %65 = zext i8 %64 to i32
  %66 = shl i32 %65, 6
  %67 = trunc i32 %66 to i8
  store i8 %67, ptr %17, align 1
  %68 = load i8, ptr %17, align 1
  %69 = zext i8 %68 to i32
  %70 = and i32 %69, 192
  %71 = trunc i32 %70 to i8
  store i8 %71, ptr %17, align 1
  %72 = load i8, ptr %17, align 1
  %73 = zext i8 %72 to i32
  %74 = load i8, ptr %18, align 1
  %75 = zext i8 %74 to i32
  %76 = or i32 %73, %75
  %77 = trunc i32 %76 to i8
  store i8 %77, ptr %7, align 1
  %78 = load i8, ptr %7, align 1
  %79 = zext i8 %78 to i32
  %80 = add i32 %79, 2
  store i32 %80, ptr %11, align 4
  call void @llvm.lifetime.end.p0(i64 1, ptr %18) #3
  call void @llvm.lifetime.end.p0(i64 1, ptr %17) #3
  br label %89

81:                                               ; preds = %35
  %82 = load i8, ptr %8, align 1
  %83 = zext i8 %82 to i32
  %84 = and i32 %83, 3
  %85 = trunc i32 %84 to i8
  store i8 %85, ptr %7, align 1
  %86 = load i8, ptr %7, align 1
  %87 = zext i8 %86 to i32
  %88 = add i32 %87, 1
  store i32 %88, ptr %11, align 4
  br label %89

89:                                               ; preds = %81, %43
  %90 = load i8, ptr %8, align 1
  %91 = zext i8 %90 to i32
  %92 = and i32 %91, 124
  %93 = trunc i32 %92 to i8
  store i8 %93, ptr %10, align 1
  %94 = load i8, ptr %10, align 1
  %95 = zext i8 %94 to i32
  %96 = ashr i32 %95, 2
  %97 = trunc i32 %96 to i8
  store i8 %97, ptr %10, align 1
  %98 = load i8, ptr %10, align 1
  %99 = zext i8 %98 to i32
  %100 = icmp eq i32 %99, 11
  br i1 %100, label %101, label %176

101:                                              ; preds = %89
  call void @llvm.lifetime.start.p0(i64 8, ptr %19) #3
  call void @llvm.lifetime.start.p0(i64 1, ptr %20) #3
  %102 = load ptr, ptr %15, align 8
  %103 = load ptr, ptr %4, align 8
  %104 = load i32, ptr %12, align 4
  %105 = load i32, ptr %11, align 4
  %106 = load i32, ptr @ett_llcgprs_ui, align 4
  %107 = call ptr @proto_tree_add_subtree(ptr noundef %102, ptr noundef %103, i32 noundef %104, i32 noundef %105, i32 noundef %106, ptr noundef null, ptr noundef @.str.232)
  store ptr %107, ptr %14, align 8
  %108 = load ptr, ptr %14, align 8
  %109 = load i32, ptr @hf_llcgprs_xid_xl, align 4
  %110 = load ptr, ptr %4, align 8
  %111 = load i32, ptr %12, align 4
  %112 = load i8, ptr %8, align 1
  %113 = zext i8 %112 to i32
  %114 = call ptr @proto_tree_add_uint(ptr noundef %108, i32 noundef %109, ptr noundef %110, i32 noundef %111, i32 noundef 1, i32 noundef %113)
  %115 = load ptr, ptr %14, align 8
  %116 = load i32, ptr @hf_llcgprs_xid_type, align 4
  %117 = load ptr, ptr %4, align 8
  %118 = load i32, ptr %12, align 4
  %119 = load i8, ptr %8, align 1
  %120 = zext i8 %119 to i32
  %121 = call ptr @proto_tree_add_uint(ptr noundef %115, i32 noundef %116, ptr noundef %117, i32 noundef %118, i32 noundef 1, i32 noundef %120)
  %122 = load ptr, ptr %14, align 8
  %123 = load i32, ptr @hf_llcgprs_xid_len1, align 4
  %124 = load ptr, ptr %4, align 8
  %125 = load i32, ptr %12, align 4
  %126 = load i8, ptr %8, align 1
  %127 = zext i8 %126 to i32
  %128 = call ptr @proto_tree_add_uint(ptr noundef %122, i32 noundef %123, ptr noundef %124, i32 noundef %125, i32 noundef 1, i32 noundef %127)
  %129 = load i8, ptr %8, align 1
  %130 = zext i8 %129 to i32
  %131 = and i32 %130, 128
  %132 = icmp ne i32 %131, 0
  br i1 %132, label %133, label %150

133:                                              ; preds = %101
  %134 = load ptr, ptr %14, align 8
  %135 = load i32, ptr @hf_llcgprs_xid_len2, align 4
  %136 = load ptr, ptr %4, align 8
  %137 = load i32, ptr %12, align 4
  %138 = add i32 %137, 1
  %139 = load i8, ptr %9, align 1
  %140 = zext i8 %139 to i32
  %141 = call ptr @proto_tree_add_uint(ptr noundef %134, i32 noundef %135, ptr noundef %136, i32 noundef %138, i32 noundef 1, i32 noundef %140)
  %142 = load ptr, ptr %14, align 8
  %143 = load i32, ptr @hf_llcgprs_xid_spare, align 4
  %144 = load ptr, ptr %4, align 8
  %145 = load i32, ptr %12, align 4
  %146 = add i32 %145, 1
  %147 = load i8, ptr %9, align 1
  %148 = zext i8 %147 to i32
  %149 = call ptr @proto_tree_add_uint(ptr noundef %142, i32 noundef %143, ptr noundef %144, i32 noundef %146, i32 noundef 1, i32 noundef %148)
  store i8 2, ptr %20, align 1
  br label %151

150:                                              ; preds = %101
  store i8 1, ptr %20, align 1
  br label %151

151:                                              ; preds = %150, %133
  %152 = load i8, ptr %7, align 1
  %153 = icmp ne i8 %152, 0
  br i1 %153, label %154, label %172

154:                                              ; preds = %151
  %155 = load ptr, ptr %4, align 8
  %156 = load i32, ptr %12, align 4
  %157 = load i8, ptr %20, align 1
  %158 = zext i8 %157 to i32
  %159 = add i32 %156, %158
  %160 = load i8, ptr %7, align 1
  %161 = zext i8 %160 to i32
  %162 = call ptr @tvb_new_subset_length(ptr noundef %155, i32 noundef %159, i32 noundef %161)
  store ptr %162, ptr %19, align 8
  %163 = load ptr, ptr @sndcp_xid_handle, align 8
  %164 = icmp ne ptr %163, null
  br i1 %164, label %165, label %171

165:                                              ; preds = %154
  %166 = load ptr, ptr @sndcp_xid_handle, align 8
  %167 = load ptr, ptr %19, align 8
  %168 = load ptr, ptr %5, align 8
  %169 = load ptr, ptr %14, align 8
  %170 = call i32 @call_dissector(ptr noundef %166, ptr noundef %167, ptr noundef %168, ptr noundef %169)
  br label %171

171:                                              ; preds = %165, %154
  br label %172

172:                                              ; preds = %171, %151
  %173 = load i32, ptr %11, align 4
  %174 = load i32, ptr %12, align 4
  %175 = add i32 %174, %173
  store i32 %175, ptr %12, align 4
  call void @llvm.lifetime.end.p0(i64 1, ptr %20) #3
  call void @llvm.lifetime.end.p0(i64 8, ptr %19) #3
  br label %295

176:                                              ; preds = %89
  %177 = load i8, ptr %7, align 1
  %178 = zext i8 %177 to i32
  %179 = icmp sgt i32 %178, 0
  br i1 %179, label %180, label %217

180:                                              ; preds = %176
  %181 = load i8, ptr %7, align 1
  %182 = zext i8 %181 to i32
  %183 = icmp sle i32 %182, 4
  br i1 %183, label %184, label %217

184:                                              ; preds = %180
  call void @llvm.lifetime.start.p0(i64 4, ptr %21) #3
  store i32 0, ptr %21, align 4
  call void @llvm.lifetime.start.p0(i64 1, ptr %22) #3
  store i8 1, ptr %22, align 1
  br label %185

185:                                              ; preds = %203, %184
  %186 = load i8, ptr %22, align 1
  %187 = zext i8 %186 to i32
  %188 = load i8, ptr %7, align 1
  %189 = zext i8 %188 to i32
  %190 = icmp sle i32 %187, %189
  br i1 %190, label %191, label %206

191:                                              ; preds = %185
  %192 = load i32, ptr %21, align 4
  %193 = shl i32 %192, 8
  store i32 %193, ptr %21, align 4
  %194 = load ptr, ptr %4, align 8
  %195 = load i32, ptr %12, align 4
  %196 = load i8, ptr %22, align 1
  %197 = zext i8 %196 to i32
  %198 = add i32 %195, %197
  %199 = call zeroext i8 @tvb_get_uint8(ptr noundef %194, i32 noundef %198)
  %200 = zext i8 %199 to i32
  %201 = load i32, ptr %21, align 4
  %202 = or i32 %201, %200
  store i32 %202, ptr %21, align 4
  br label %203

203:                                              ; preds = %191
  %204 = load i8, ptr %22, align 1
  %205 = add i8 %204, 1
  store i8 %205, ptr %22, align 1
  br label %185, !llvm.loop !19

206:                                              ; preds = %185
  %207 = load ptr, ptr %15, align 8
  %208 = load ptr, ptr %4, align 8
  %209 = load i32, ptr %12, align 4
  %210 = load i32, ptr %11, align 4
  %211 = load i32, ptr @ett_llcgprs_ui, align 4
  %212 = load i8, ptr %10, align 1
  %213 = zext i8 %212 to i32
  %214 = call ptr @val_to_str_ext(i32 noundef %213, ptr noundef @xid_param_type_str_ext, ptr noundef @.str.234)
  %215 = load i32, ptr %21, align 4
  %216 = call ptr (ptr, ptr, i32, i32, i32, ptr, ptr, ...) @proto_tree_add_subtree_format(ptr noundef %207, ptr noundef %208, i32 noundef %209, i32 noundef %210, i32 noundef %211, ptr noundef null, ptr noundef @.str.233, ptr noundef %214, i32 noundef %215)
  store ptr %216, ptr %14, align 8
  call void @llvm.lifetime.end.p0(i64 1, ptr %22) #3
  call void @llvm.lifetime.end.p0(i64 4, ptr %21) #3
  br label %227

217:                                              ; preds = %180, %176
  %218 = load ptr, ptr %15, align 8
  %219 = load ptr, ptr %4, align 8
  %220 = load i32, ptr %12, align 4
  %221 = load i32, ptr %11, align 4
  %222 = load i32, ptr @ett_llcgprs_ui, align 4
  %223 = load i8, ptr %10, align 1
  %224 = zext i8 %223 to i32
  %225 = call ptr @val_to_str_ext(i32 noundef %224, ptr noundef @xid_param_type_str_ext, ptr noundef @.str.234)
  %226 = call ptr (ptr, ptr, i32, i32, i32, ptr, ptr, ...) @proto_tree_add_subtree_format(ptr noundef %218, ptr noundef %219, i32 noundef %220, i32 noundef %221, i32 noundef %222, ptr noundef null, ptr noundef @.str.235, ptr noundef %225)
  store ptr %226, ptr %14, align 8
  br label %227

227:                                              ; preds = %217, %206
  %228 = load ptr, ptr %14, align 8
  %229 = load i32, ptr @hf_llcgprs_xid_xl, align 4
  %230 = load ptr, ptr %4, align 8
  %231 = load i32, ptr %12, align 4
  %232 = load i8, ptr %8, align 1
  %233 = zext i8 %232 to i32
  %234 = call ptr @proto_tree_add_uint(ptr noundef %228, i32 noundef %229, ptr noundef %230, i32 noundef %231, i32 noundef 1, i32 noundef %233)
  %235 = load ptr, ptr %14, align 8
  %236 = load i32, ptr @hf_llcgprs_xid_type, align 4
  %237 = load ptr, ptr %4, align 8
  %238 = load i32, ptr %12, align 4
  %239 = load i8, ptr %8, align 1
  %240 = zext i8 %239 to i32
  %241 = call ptr @proto_tree_add_uint(ptr noundef %235, i32 noundef %236, ptr noundef %237, i32 noundef %238, i32 noundef 1, i32 noundef %240)
  %242 = load ptr, ptr %14, align 8
  %243 = load i32, ptr @hf_llcgprs_xid_len1, align 4
  %244 = load ptr, ptr %4, align 8
  %245 = load i32, ptr %12, align 4
  %246 = load i8, ptr %8, align 1
  %247 = zext i8 %246 to i32
  %248 = call ptr @proto_tree_add_uint(ptr noundef %242, i32 noundef %243, ptr noundef %244, i32 noundef %245, i32 noundef 1, i32 noundef %247)
  %249 = load i8, ptr %8, align 1
  %250 = zext i8 %249 to i32
  %251 = and i32 %250, 128
  %252 = icmp ne i32 %251, 0
  br i1 %252, label %253, label %270

253:                                              ; preds = %227
  %254 = load ptr, ptr %14, align 8
  %255 = load i32, ptr @hf_llcgprs_xid_len2, align 4
  %256 = load ptr, ptr %4, align 8
  %257 = load i32, ptr %12, align 4
  %258 = load i8, ptr %9, align 1
  %259 = zext i8 %258 to i32
  %260 = call ptr @proto_tree_add_uint(ptr noundef %254, i32 noundef %255, ptr noundef %256, i32 noundef %257, i32 noundef 1, i32 noundef %259)
  %261 = load ptr, ptr %14, align 8
  %262 = load i32, ptr @hf_llcgprs_xid_spare, align 4
  %263 = load ptr, ptr %4, align 8
  %264 = load i32, ptr %12, align 4
  %265 = load i8, ptr %9, align 1
  %266 = zext i8 %265 to i32
  %267 = call ptr @proto_tree_add_uint(ptr noundef %261, i32 noundef %262, ptr noundef %263, i32 noundef %264, i32 noundef 1, i32 noundef %266)
  %268 = load i32, ptr %12, align 4
  %269 = add i32 %268, 1
  store i32 %269, ptr %12, align 4
  br label %270

270:                                              ; preds = %253, %227
  %271 = load i32, ptr %12, align 4
  %272 = add i32 %271, 1
  store i32 %272, ptr %12, align 4
  store i32 0, ptr %13, align 4
  br label %273

273:                                              ; preds = %291, %270
  %274 = load i32, ptr %13, align 4
  %275 = load i8, ptr %7, align 1
  %276 = zext i8 %275 to i32
  %277 = icmp ult i32 %274, %276
  br i1 %277, label %278, label %294

278:                                              ; preds = %273
  %279 = load ptr, ptr %4, align 8
  %280 = load i32, ptr %12, align 4
  %281 = call zeroext i8 @tvb_get_uint8(ptr noundef %279, i32 noundef %280)
  store i8 %281, ptr %9, align 1
  %282 = load ptr, ptr %14, align 8
  %283 = load i32, ptr @hf_llcgprs_xid_byte, align 4
  %284 = load ptr, ptr %4, align 8
  %285 = load i32, ptr %12, align 4
  %286 = load i8, ptr %9, align 1
  %287 = zext i8 %286 to i32
  %288 = call ptr @proto_tree_add_uint(ptr noundef %282, i32 noundef %283, ptr noundef %284, i32 noundef %285, i32 noundef 1, i32 noundef %287)
  %289 = load i32, ptr %12, align 4
  %290 = add i32 %289, 1
  store i32 %290, ptr %12, align 4
  br label %291

291:                                              ; preds = %278
  %292 = load i32, ptr %13, align 4
  %293 = add i32 %292, 1
  store i32 %293, ptr %13, align 4
  br label %273, !llvm.loop !20

294:                                              ; preds = %273
  br label %295

295:                                              ; preds = %294, %172
  br label %31, !llvm.loop !21

296:                                              ; preds = %31
  call void @llvm.lifetime.end.p0(i64 4, ptr %16) #3
  call void @llvm.lifetime.end.p0(i64 8, ptr %15) #3
  call void @llvm.lifetime.end.p0(i64 8, ptr %14) #3
  call void @llvm.lifetime.end.p0(i64 4, ptr %13) #3
  call void @llvm.lifetime.end.p0(i64 4, ptr %12) #3
  call void @llvm.lifetime.end.p0(i64 4, ptr %11) #3
  call void @llvm.lifetime.end.p0(i64 1, ptr %10) #3
  call void @llvm.lifetime.end.p0(i64 1, ptr %9) #3
  call void @llvm.lifetime.end.p0(i64 1, ptr %8) #3
  call void @llvm.lifetime.end.p0(i64 1, ptr %7) #3
  ret void
}