; Function Attrs: null_pointer_is_valid sspstrong uwtable
define internal fastcc void @llc_gprs_dissect_xid(ptr noundef %0, ptr noundef %1, ptr noundef %2) unnamed_addr #0 {
  %4 = tail call i32 @tvb_reported_length(ptr noundef %0)
  %5 = load i32, ptr @ett_llcgprs_ui, align 4
  %6 = tail call ptr (ptr, ptr, i32, i32, i32, ptr, ptr, ...) @proto_tree_add_subtree_format(ptr noundef %2, ptr noundef %0, i32 noundef 0, i32 noundef %4, i32 noundef %5, ptr noundef null, ptr noundef nonnull @.str.207, i32 noundef %4)
  %.not149 = icmp eq i32 %4, 0
  br i1 %.not149, label %._crit_edge148, label %.lr.ph147

.lr.ph147:                                        ; preds = %3, %.loopexit
  %.0119145 = phi i8 [ %.2, %.loopexit ], [ 0, %3 ]
  %.0122144 = phi i32 [ %.1123, %.loopexit ], [ 0, %3 ]
  %7 = tail call zeroext i8 @tvb_get_uint8(ptr noundef %0, i32 noundef %.0122144)
  %8 = zext i8 %7 to i32
  %.not = icmp sgt i8 %7, -1
  br i1 %.not, label %15, label %9

9:                                                ; preds = %.lr.ph147
  %10 = add nuw i32 %.0122144, 1
  %11 = tail call zeroext i8 @tvb_get_uint8(ptr noundef %0, i32 noundef %10)
  %12 = tail call i8 @llvm.fshl.i8(i8 %7, i8 %11, i8 6)
  %13 = zext i8 %12 to i32
  %14 = add nuw nsw i32 %13, 2
  br label %18

15:                                               ; preds = %.lr.ph147
  %16 = and i8 %7, 3
  %narrow = add nuw nsw i8 %16, 1
  %17 = zext nneg i8 %narrow to i32
  br label %18

18:                                               ; preds = %15, %9
  %.0126 = phi i32 [ %14, %9 ], [ %17, %15 ]
  %.1 = phi i8 [ %11, %9 ], [ %.0119145, %15 ]
  %.0118 = phi i8 [ %12, %9 ], [ %16, %15 ]
  %19 = lshr i8 %7, 2
  %20 = and i8 %19, 31
  %21 = zext nneg i8 %20 to i32
  %22 = icmp eq i8 %20, 11
  br i1 %22, label %23, label %49

23:                                               ; preds = %18
  %24 = load i32, ptr @ett_llcgprs_ui, align 4
  %25 = tail call ptr @proto_tree_add_subtree(ptr noundef %6, ptr noundef %0, i32 noundef %.0122144, i32 noundef %.0126, i32 noundef %24, ptr noundef null, ptr noundef nonnull @.str.232)
  %26 = load i32, ptr @hf_llcgprs_xid_xl, align 4
  %27 = tail call ptr @proto_tree_add_uint(ptr noundef %25, i32 noundef %26, ptr noundef %0, i32 noundef %.0122144, i32 noundef 1, i32 noundef %8)
  %28 = load i32, ptr @hf_llcgprs_xid_type, align 4
  %29 = tail call ptr @proto_tree_add_uint(ptr noundef %25, i32 noundef %28, ptr noundef %0, i32 noundef %.0122144, i32 noundef 1, i32 noundef %8)
  %30 = load i32, ptr @hf_llcgprs_xid_len1, align 4
  %31 = tail call ptr @proto_tree_add_uint(ptr noundef %25, i32 noundef %30, ptr noundef %0, i32 noundef %.0122144, i32 noundef 1, i32 noundef %8)
  br i1 %.not, label %39, label %32

32:                                               ; preds = %23
  %33 = load i32, ptr @hf_llcgprs_xid_len2, align 4
  %34 = add nuw i32 %.0122144, 1
  %35 = zext i8 %.1 to i32
  %36 = tail call ptr @proto_tree_add_uint(ptr noundef %25, i32 noundef %33, ptr noundef %0, i32 noundef %34, i32 noundef 1, i32 noundef %35)
  %37 = load i32, ptr @hf_llcgprs_xid_spare, align 4
  %38 = tail call ptr @proto_tree_add_uint(ptr noundef %25, i32 noundef %37, ptr noundef %0, i32 noundef %34, i32 noundef 1, i32 noundef %35)
  br label %39

39:                                               ; preds = %23, %32
  %.0117 = phi i32 [ 2, %32 ], [ 1, %23 ]
  %.not132 = icmp eq i8 %.0118, 0
  br i1 %.not132, label %47, label %40

40:                                               ; preds = %39
  %41 = add i32 %.0117, %.0122144
  %42 = zext i8 %.0118 to i32
  %43 = tail call ptr @tvb_new_subset_length(ptr noundef %0, i32 noundef %41, i32 noundef %42)
  %44 = load ptr, ptr @sndcp_xid_handle, align 8
  %.not133 = icmp eq ptr %44, null
  br i1 %.not133, label %47, label %45

45:                                               ; preds = %40
  %46 = tail call i32 @call_dissector(ptr noundef nonnull %44, ptr noundef %43, ptr noundef %1, ptr noundef %25)
  br label %47

47:                                               ; preds = %40, %45, %39
  %48 = add i32 %.0126, %.0122144
  br label %.loopexit

49:                                               ; preds = %18
  %50 = zext i8 %.0118 to i32
  %51 = add i8 %.0118, -1
  %or.cond = icmp ult i8 %51, 4
  br i1 %or.cond, label %.lr.ph.preheader, label %60

.lr.ph.preheader:                                 ; preds = %49
  %narrow154 = add nuw nsw i8 %.0118, 1
  %wide.trip.count = zext nneg i8 %narrow154 to i32
  br label %.lr.ph

.lr.ph:                                           ; preds = %.lr.ph.preheader, %.lr.ph
  %indvars.iv = phi i32 [ 1, %.lr.ph.preheader ], [ %indvars.iv.next, %.lr.ph ]
  %.0116135 = phi i32 [ 0, %.lr.ph.preheader ], [ %56, %.lr.ph ]
  %52 = shl i32 %.0116135, 8
  %53 = add i32 %.0122144, %indvars.iv
  %54 = tail call zeroext i8 @tvb_get_uint8(ptr noundef %0, i32 noundef %53)
  %55 = zext i8 %54 to i32
  %56 = or disjoint i32 %52, %55
  %indvars.iv.next = add nuw nsw i32 %indvars.iv, 1
  %exitcond = icmp eq i32 %indvars.iv.next, %wide.trip.count
  br i1 %exitcond, label %._crit_edge, label %.lr.ph, !llvm.loop !19

._crit_edge:                                      ; preds = %.lr.ph
  %57 = load i32, ptr @ett_llcgprs_ui, align 4
  %58 = tail call ptr @val_to_str_ext(i32 noundef %21, ptr noundef nonnull @xid_param_type_str_ext, ptr noundef nonnull @.str.234)
  %59 = tail call ptr (ptr, ptr, i32, i32, i32, ptr, ptr, ...) @proto_tree_add_subtree_format(ptr noundef %6, ptr noundef %0, i32 noundef %.0122144, i32 noundef %.0126, i32 noundef %57, ptr noundef null, ptr noundef nonnull @.str.233, ptr noundef %58, i32 noundef %56)
  br label %64

60:                                               ; preds = %49
  %61 = load i32, ptr @ett_llcgprs_ui, align 4
  %62 = tail call ptr @val_to_str_ext(i32 noundef %21, ptr noundef nonnull @xid_param_type_str_ext, ptr noundef nonnull @.str.234)
  %63 = tail call ptr (ptr, ptr, i32, i32, i32, ptr, ptr, ...) @proto_tree_add_subtree_format(ptr noundef %6, ptr noundef %0, i32 noundef %.0122144, i32 noundef %.0126, i32 noundef %61, ptr noundef null, ptr noundef nonnull @.str.235, ptr noundef %62)
  br label %64

64:                                               ; preds = %60, %._crit_edge
  %.0120 = phi ptr [ %59, %._crit_edge ], [ %63, %60 ]
  %65 = load i32, ptr @hf_llcgprs_xid_xl, align 4
  %66 = tail call ptr @proto_tree_add_uint(ptr noundef %.0120, i32 noundef %65, ptr noundef %0, i32 noundef %.0122144, i32 noundef 1, i32 noundef %8)
  %67 = load i32, ptr @hf_llcgprs_xid_type, align 4
  %68 = tail call ptr @proto_tree_add_uint(ptr noundef %.0120, i32 noundef %67, ptr noundef %0, i32 noundef %.0122144, i32 noundef 1, i32 noundef %8)
  %69 = load i32, ptr @hf_llcgprs_xid_len1, align 4
  %70 = tail call ptr @proto_tree_add_uint(ptr noundef %.0120, i32 noundef %69, ptr noundef %0, i32 noundef %.0122144, i32 noundef 1, i32 noundef %8)
  br i1 %.not, label %78, label %71

71:                                               ; preds = %64
  %72 = load i32, ptr @hf_llcgprs_xid_len2, align 4
  %73 = zext i8 %.1 to i32
  %74 = tail call ptr @proto_tree_add_uint(ptr noundef %.0120, i32 noundef %72, ptr noundef %0, i32 noundef %.0122144, i32 noundef 1, i32 noundef %73)
  %75 = load i32, ptr @hf_llcgprs_xid_spare, align 4
  %76 = tail call ptr @proto_tree_add_uint(ptr noundef %.0120, i32 noundef %75, ptr noundef %0, i32 noundef %.0122144, i32 noundef 1, i32 noundef %73)
  %77 = add i32 %.0122144, 1
  br label %78

78:                                               ; preds = %71, %64
  %.2124 = phi i32 [ %77, %71 ], [ %.0122144, %64 ]
  %.3125137 = add i32 %.2124, 1
  %.not150 = icmp eq i8 %.0118, 0
  br i1 %.not150, label %.loopexit, label %.lr.ph141

.lr.ph141:                                        ; preds = %78, %.lr.ph141
  %.3125139 = phi i32 [ %.3125, %.lr.ph141 ], [ %.3125137, %78 ]
  %.0121138 = phi i32 [ %83, %.lr.ph141 ], [ 0, %78 ]
  %79 = tail call zeroext i8 @tvb_get_uint8(ptr noundef %0, i32 noundef %.3125139)
  %80 = load i32, ptr @hf_llcgprs_xid_byte, align 4
  %81 = zext i8 %79 to i32
  %82 = tail call ptr @proto_tree_add_uint(ptr noundef %.0120, i32 noundef %80, ptr noundef %0, i32 noundef %.3125139, i32 noundef 1, i32 noundef %81)
  %83 = add nuw nsw i32 %.0121138, 1
  %.3125 = add i32 %.3125139, 1
  %exitcond153.not = icmp eq i32 %83, %50
  br i1 %exitcond153.not, label %.loopexit, label %.lr.ph141, !llvm.loop !20

.loopexit:                                        ; preds = %.lr.ph141, %78, %47
  %.1123 = phi i32 [ %48, %47 ], [ %.3125137, %78 ], [ %.3125, %.lr.ph141 ]
  %.2 = phi i8 [ %.1, %47 ], [ %.1, %78 ], [ %79, %.lr.ph141 ]
  %84 = icmp ult i32 %.1123, %4
  br i1 %84, label %.lr.ph147, label %._crit_edge148, !llvm.loop !21

._crit_edge148:                                   ; preds = %.loopexit, %3
  ret void
}